target datalayout = "e-m:e-p270:32:32-p271:32:32-p272:64:64-i64:64-i128:128-f80:128-n8:16:32:64-S128"
target triple = "x86_64-pc-linux-gnu"

%struct.slurm_cred_arg_t = type { %struct.slurm_step_id_msg, i32, i32, ptr, i16, ptr, ptr, ptr, i32, ptr, ptr, ptr, ptr, ptr, ptr, ptr, i16, i64, ptr, ptr, ptr, ptr, ptr, i32, i32, ptr, i32, i16, ptr, ptr, ptr, i16, ptr, i64, ptr, ptr, ptr, i16, ptr, ptr, ptr, ptr, i32, ptr, ptr }
%struct.slurm_step_id_msg = type { i64, i32, i32, i32 }
%struct.slurm_cred_t = type { i32, %union.pthread_rwlock_t, ptr, i32, i16, ptr, i64, ptr, i8 }
%union.pthread_rwlock_t = type { %struct.__pthread_rwlock_arch_t }
%struct.__pthread_rwlock_arch_t = type { i32, i32, i32, i32, i32, i32, i32, i32, i8, [7 x i8], i64, i32 }

@.str.28 = private unnamed_addr constant [36 x i8] c"Unable to create job hostlist: `%s'\00", align 1
@.str.29 = private unnamed_addr constant [33 x i8] c"Invalid host_index %d for job %u\00", align 1
@.str.33 = private unnamed_addr constant [38 x i8] c"Host %s not in credential hostlist %s\00", align 1

; Function Attrs: nounwind uwtable
define dso_local void @get_cred_gres(ptr noundef %0, ptr noundef %1, ptr noundef %2, ptr noundef %3) #0 {
  %5 = alloca ptr, align 8
  %6 = alloca ptr, align 8
  %7 = alloca ptr, align 8
  %8 = alloca ptr, align 8
  %9 = alloca ptr, align 8
  %10 = alloca ptr, align 8
  %11 = alloca i32, align 4
  %12 = alloca i32, align 4
  store ptr %0, ptr %5, align 8
  store ptr %1, ptr %6, align 8
  store ptr %2, ptr %7, align 8
  store ptr %3, ptr %8, align 8
  call void @llvm.lifetime.start.p0(i64 8, ptr %9) #9
  %13 = load ptr, ptr %5, align 8
  %14 = getelementptr inbounds nuw %struct.slurm_cred_t, ptr %13, i32 0, i32 5
  %15 = load ptr, ptr %14, align 8
  store ptr %15, ptr %9, align 8
  call void @llvm.lifetime.start.p0(i64 8, ptr %10) #9
  store ptr null, ptr %10, align 8
  call void @llvm.lifetime.start.p0(i64 4, ptr %11) #9
  store i32 -1, ptr %11, align 4
  br label %16

16:                                               ; preds = %4
  %17 = load ptr, ptr %7, align 8
  %18 = load ptr, ptr %17, align 8
  %19 = icmp ne ptr %18, null
  br i1 %19, label %20, label %23

20:                                               ; preds = %16
  %21 = load ptr, ptr %7, align 8
  %22 = load ptr, ptr %21, align 8
  call void @list_destroy(ptr noundef %22)
  br label %23

23:                                               ; preds = %20, %16
  %24 = load ptr, ptr %7, align 8
  store ptr null, ptr %24, align 8
  br label %25

25:                                               ; preds = %23
  br label %26

26:                                               ; preds = %25
  br label %27

27:                                               ; preds = %26
  %28 = load ptr, ptr %8, align 8
  %29 = load ptr, ptr %28, align 8
  %30 = icmp ne ptr %29, null
  br i1 %30, label %31, label %34

31:                                               ; preds = %27
  %32 = load ptr, ptr %8, align 8
  %33 = load ptr, ptr %32, align 8
  call void @list_destroy(ptr noundef %33)
  br label %34

34:                                               ; preds = %31, %27
  %35 = load ptr, ptr %8, align 8
  store ptr null, ptr %35, align 8
  br label %36

36:                                               ; preds = %34
  br label %37

37:                                               ; preds = %36
  %38 = load ptr, ptr %9, align 8
  %39 = getelementptr inbounds nuw %struct.slurm_cred_arg_t, ptr %38, i32 0, i32 28
  %40 = load ptr, ptr %39, align 8
  %41 = icmp eq ptr %40, null
  br i1 %41, label %42, label %48

42:                                               ; preds = %37
  %43 = load ptr, ptr %9, align 8
  %44 = getelementptr inbounds nuw %struct.slurm_cred_arg_t, ptr %43, i32 0, i32 43
  %45 = load ptr, ptr %44, align 8
  %46 = icmp eq ptr %45, null
  br i1 %46, label %47, label %48

47:                                               ; preds = %42
  store i32 1, ptr %12, align 4
  br label %97

48:                                               ; preds = %42, %37
  %49 = load ptr, ptr %9, align 8
  %50 = getelementptr inbounds nuw %struct.slurm_cred_arg_t, ptr %49, i32 0, i32 19
  %51 = load ptr, ptr %50, align 8
  %52 = call ptr @hostlist_create(ptr noundef %51)
  store ptr %52, ptr %10, align 8
  %53 = icmp ne ptr %52, null
  br i1 %53, label %59, label %54

54:                                               ; preds = %48
  %55 = load ptr, ptr %9, align 8
  %56 = getelementptr inbounds nuw %struct.slurm_cred_arg_t, ptr %55, i32 0, i32 19
  %57 = load ptr, ptr %56, align 8
  %58 = call i32 (ptr, ...) @error(ptr noundef @.str.28, ptr noundef %57)
  store i32 1, ptr %12, align 4
  br label %97

59:                                               ; preds = %48
  %60 = load ptr, ptr %10, align 8
  %61 = load ptr, ptr %6, align 8
  %62 = call i32 @hostlist_find(ptr noundef %60, ptr noundef %61)
  store i32 %62, ptr %11, align 4
  %63 = load ptr, ptr %10, align 8
  call void @hostlist_destroy(ptr noundef %63)
  %64 = load i32, ptr %11, align 4
  %65 = icmp slt i32 %64, 0
  br i1 %65, label %72, label %66

66:                                               ; preds = %59
  %67 = load i32, ptr %11, align 4
  %68 = load ptr, ptr %9, align 8
  %69 = getelementptr inbounds nuw %struct.slurm_cred_arg_t, ptr %68, i32 0, i32 24
  %70 = load i32, ptr %69, align 4
  %71 = icmp uge i32 %67, %70
  br i1 %71, label %72, label %84

72:                                               ; preds = %66, %59
  %73 = load i32, ptr %11, align 4
  %74 = load ptr, ptr %9, align 8
  %75 = getelementptr inbounds nuw %struct.slurm_cred_arg_t, ptr %74, i32 0, i32 0
  %76 = getelementptr inbounds nuw %struct.slurm_step_id_msg, ptr %75, i32 0, i32 1
  %77 = load i32, ptr %76, align 8
  %78 = call i32 (ptr, ...) @error(ptr noundef @.str.29, i32 noundef %73, i32 noundef %77)
  %79 = load ptr, ptr %6, align 8
  %80 = load ptr, ptr %9, align 8
  %81 = getelementptr inbounds nuw %struct.slurm_cred_arg_t, ptr %80, i32 0, i32 19
  %82 = load ptr, ptr %81, align 8
  %83 = call i32 (ptr, ...) @error(ptr noundef @.str.33, ptr noundef %79, ptr noundef %82)
  store i32 1, ptr %12, align 4
  br label %97

84:                                               ; preds = %66
  %85 = load ptr, ptr %9, align 8
  %86 = getelementptr inbounds nuw %struct.slurm_cred_arg_t, ptr %85, i32 0, i32 28
  %87 = load ptr, ptr %86, align 8
  %88 = load i32, ptr %11, align 4
  %89 = call ptr @gres_job_state_extract(ptr noundef %87, i32 noundef %88)
  %90 = load ptr, ptr %7, align 8
  store ptr %89, ptr %90, align 8
  %91 = load ptr, ptr %9, align 8
  %92 = getelementptr inbounds nuw %struct.slurm_cred_arg_t, ptr %91, i32 0, i32 43
  %93 = load ptr, ptr %92, align 8
  %94 = load i32, ptr %11, align 4
  %95 = call ptr @gres_step_state_extract(ptr noundef %93, i32 noundef %94)
  %96 = load ptr, ptr %8, align 8
  store ptr %95, ptr %96, align 8
  store i32 1, ptr %12, align 4
  br label %97

97:                                               ; preds = %84, %72, %54, %47
  call void @llvm.lifetime.end.p0(i64 4, ptr %11) #9
  call void @llvm.lifetime.end.p0(i64 8, ptr %10) #9
  call void @llvm.lifetime.end.p0(i64 8, ptr %9) #9
  ret void
}