; Function Attrs: nounwind uwtable
define dso_local void @get_cred_gres(ptr noundef readonly captures(none) %0, ptr noundef %1, ptr noundef captures(none) %2, ptr noundef captures(none) %3) local_unnamed_addr #0 {
  %5 = getelementptr inbounds nuw i8, ptr %0, i64 80
  %6 = load ptr, ptr %5, align 8
  %7 = load ptr, ptr %2, align 8
  %.not = icmp eq ptr %7, null
  br i1 %.not, label %9, label %8

8:                                                ; preds = %4
  tail call void @list_destroy(ptr noundef nonnull %7) #11
  br label %9

9:                                                ; preds = %8, %4
  store ptr null, ptr %2, align 8
  %10 = load ptr, ptr %3, align 8
  %.not29 = icmp eq ptr %10, null
  br i1 %.not29, label %12, label %11

11:                                               ; preds = %9
  tail call void @list_destroy(ptr noundef nonnull %10) #11
  br label %12

12:                                               ; preds = %11, %9
  store ptr null, ptr %3, align 8
  %13 = getelementptr inbounds nuw i8, ptr %6, i64 216
  %14 = load ptr, ptr %13, align 8
  %15 = icmp eq ptr %14, null
  br i1 %15, label %16, label %20

16:                                               ; preds = %12
  %17 = getelementptr inbounds nuw i8, ptr %6, i64 336
  %18 = load ptr, ptr %17, align 8
  %19 = icmp eq ptr %18, null
  br i1 %19, label %45, label %20

20:                                               ; preds = %16, %12
  %21 = getelementptr inbounds nuw i8, ptr %6, i64 160
  %22 = load ptr, ptr %21, align 8
  %23 = tail call ptr @hostlist_create(ptr noundef %22) #11
  %.not30 = icmp eq ptr %23, null
  br i1 %.not30, label %24, label %27

24:                                               ; preds = %20
  %25 = load ptr, ptr %21, align 8
  %26 = tail call i32 (ptr, ...) @error(ptr noundef nonnull @.str.28, ptr noundef %25) #11
  br label %45

27:                                               ; preds = %20
  %28 = tail call i32 @hostlist_find(ptr noundef nonnull %23, ptr noundef %1) #11
  tail call void @hostlist_destroy(ptr noundef nonnull %23) #11
  %29 = icmp slt i32 %28, 0
  br i1 %29, label %33, label %30

30:                                               ; preds = %27
  %31 = getelementptr inbounds nuw i8, ptr %6, i64 196
  %32 = load i32, ptr %31, align 4
  %.not31 = icmp ult i32 %28, %32
  br i1 %.not31, label %39, label %33

33:                                               ; preds = %30, %27
  %34 = getelementptr inbounds nuw i8, ptr %6, i64 8
  %35 = load i32, ptr %34, align 8
  %36 = tail call i32 (ptr, ...) @error(ptr noundef nonnull @.str.29, i32 noundef %28, i32 noundef %35) #11
  %37 = load ptr, ptr %21, align 8
  %38 = tail call i32 (ptr, ...) @error(ptr noundef nonnull @.str.33, ptr noundef %1, ptr noundef %37) #11
  br label %45

39:                                               ; preds = %30
  %40 = load ptr, ptr %13, align 8
  %41 = tail call ptr @gres_job_state_extract(ptr noundef %40, i32 noundef %28) #11
  store ptr %41, ptr %2, align 8
  %42 = getelementptr inbounds nuw i8, ptr %6, i64 336
  %43 = load ptr, ptr %42, align 8
  %44 = tail call ptr @gres_step_state_extract(ptr noundef %43, i32 noundef %28) #11
  store ptr %44, ptr %3, align 8
  br label %45

45:                                               ; preds = %16, %39, %33, %24
  ret void
}